; Function Attrs: nounwind sspstrong uwtable
define internal void @vfio_intx_mmap_enable(ptr noundef %opaque) #0 {
entry:
  %intx = getelementptr inbounds nuw i8, ptr %opaque, i64 2760
  %0 = load i8, ptr %intx, align 8
  %tobool = trunc i8 %0 to i1
  br i1 %tobool, label %if.then, label %if.end

if.then:                                          ; preds = %entry
  %mmap_timer = getelementptr inbounds nuw i8, ptr %opaque, i64 2800
  %1 = load ptr, ptr %mmap_timer, align 8
  %call.i = tail call i64 @qemu_clock_get_ns(i32 noundef 1) #23
  %div.i = sdiv i64 %call.i, 1000000
  %mmap_timeout = getelementptr inbounds nuw i8, ptr %opaque, i64 2796
  %2 = load i32, ptr %mmap_timeout, align 4
  %conv = zext i32 %2 to i64
  %add = add nsw i64 %div.i, %conv
  tail call void @timer_mod(ptr noundef %1, i64 noundef %add) #23
  br label %return

if.end:                                           ; preds = %entry
  %bars.i = getelementptr inbounds nuw i8, ptr %opaque, i64 2888
  br label %for.body.i

for.body.i:                                       ; preds = %for.body.i, %if.end
  %indvars.iv.i = phi i64 [ 0, %if.end ], [ %indvars.iv.next.i, %for.body.i ]
  %arrayidx.i = getelementptr [6 x %struct.VFIOBAR], ptr %bars.i, i64 0, i64 %indvars.iv.i
  tail call void @vfio_region_mmaps_set_enabled(ptr noundef %arrayidx.i, i1 noundef zeroext true) #23
  %indvars.iv.next.i = add nuw nsw i64 %indvars.iv.i, 1
  %exitcond.not.i = icmp eq i64 %indvars.iv.next.i, 6
  br i1 %exitcond.not.i, label %return, label %for.body.i, !llvm.loop !16

return:                                           ; preds = %for.body.i, %if.then
  ret void
}